; Function Attrs: mustprogress uwtable
define hidden void @_ZN4cvc58internal6theory24InferenceManagerBufferedC2ERNS0_3EnvERNS1_6TheoryERNS1_11TheoryStateERKNSt7__cxx1112basic_stringIcSt11char_traitsIcESaIcEEEb(ptr noundef nonnull align 8 dereferenceable(337) %0, ptr noundef nonnull align 8 dereferenceable(696) %1, ptr noundef nonnull align 8 dereferenceable(280) %2, ptr noundef nonnull align 8 dereferenceable(160) %3, ptr noundef nonnull align 8 dereferenceable(32) %4, i1 noundef zeroext %5) unnamed_addr #3 align 2 personality ptr @__gxx_personality_v0 {
  tail call void @_ZN4cvc58internal6theory22TheoryInferenceManagerC2ERNS0_3EnvERNS1_6TheoryERNS1_11TheoryStateERKNSt7__cxx1112basic_stringIcSt11char_traitsIcESaIcEEEb(ptr noundef nonnull align 8 dereferenceable(240) %0, ptr noundef nonnull align 8 dereferenceable(696) %1, ptr noundef nonnull align 8 dereferenceable(280) %2, ptr noundef nonnull align 8 dereferenceable(160) %3, ptr noundef nonnull align 8 dereferenceable(32) %4, i1 noundef zeroext %5)
  store ptr getelementptr inbounds nuw inrange(-16, 64) (i8, ptr @_ZTVN4cvc58internal6theory24InferenceManagerBufferedE, i64 16), ptr %0, align 8, !tbaa !3
  %7 = getelementptr inbounds nuw i8, ptr %0, i64 240
  %8 = getelementptr inbounds nuw i8, ptr %0, i64 296
  store i32 0, ptr %8, align 8, !tbaa !6
  %9 = getelementptr inbounds nuw i8, ptr %0, i64 304
  store ptr null, ptr %9, align 8, !tbaa !14
  %10 = getelementptr inbounds nuw i8, ptr %0, i64 312
  tail call void @llvm.memset.p0.i64(ptr noundef nonnull align 8 dereferenceable(48) %7, i8 0, i64 48, i1 false)
  store ptr %8, ptr %10, align 8, !tbaa !15
  %11 = getelementptr inbounds nuw i8, ptr %0, i64 320
  store ptr %8, ptr %11, align 8, !tbaa !16
  %12 = getelementptr inbounds nuw i8, ptr %0, i64 328
  store i64 0, ptr %12, align 8, !tbaa !17
  %13 = getelementptr inbounds nuw i8, ptr %0, i64 336
  store i8 0, ptr %13, align 8, !tbaa !18
  ret void
}